target datalayout = "e-m:e-p270:32:32-p271:32:32-p272:64:64-i64:64-i128:128-f80:128-n8:16:32:64-S128"
target triple = "x86_64-pc-linux-gnu"

%struct._address = type { i32, i32, ptr, ptr }
%struct.aeron_frame_info_t_stct = type { i32, i32, %struct.aeron_frame_link_t, %struct.aeron_frame_link_t, %struct.aeron_frame_link_t, %struct.aeron_frame_link_t, ptr, ptr, ptr, ptr, i32 }
%struct.aeron_frame_link_t = type { i32, i32 }
%struct.aeron_transport_t_stct = type { i64, ptr, ptr, %struct._address, %struct._address, i32, i16, i16 }
%struct.aeron_pos_t = type { i32, i32 }
%struct.aeron_stream_t_stct = type { ptr, ptr, ptr, i32, ptr, i32, i32, i32, i32, i32, %struct.aeron_pos_t }
%struct.aeron_term_t_stct = type { ptr, ptr, ptr, ptr, ptr, ptr, i32 }

; Function Attrs: nounwind null_pointer_is_valid sspstrong uwtable
define internal void @aeron_transport_frame_add(ptr noundef %0, ptr noundef %1, i32 noundef %2) #3 {
  %4 = alloca ptr, align 8
  %5 = alloca ptr, align 8
  %6 = alloca i32, align 4
  store ptr %0, ptr %4, align 8
  store ptr %1, ptr %5, align 8
  store i32 %2, ptr %6, align 4
  %7 = load i32, ptr %6, align 4
  %8 = icmp ne i32 %7, 0
  br i1 %8, label %9, label %13

9:                                                ; preds = %3
  %10 = load i32, ptr %6, align 4
  %11 = load ptr, ptr %5, align 8
  %12 = getelementptr inbounds nuw %struct.aeron_frame_info_t_stct, ptr %11, i32 0, i32 10
  store i32 %10, ptr %12, align 8
  br label %13

13:                                               ; preds = %9, %3
  %14 = load ptr, ptr %4, align 8
  %15 = getelementptr inbounds nuw %struct.aeron_transport_t_stct, ptr %14, i32 0, i32 2
  %16 = load ptr, ptr %15, align 8
  %17 = icmp ne ptr %16, null
  br i1 %17, label %18, label %35

18:                                               ; preds = %13
  %19 = load ptr, ptr %4, align 8
  %20 = getelementptr inbounds nuw %struct.aeron_transport_t_stct, ptr %19, i32 0, i32 2
  %21 = load ptr, ptr %20, align 8
  %22 = getelementptr inbounds nuw %struct.aeron_frame_info_t_stct, ptr %21, i32 0, i32 0
  %23 = load i32, ptr %22, align 8
  %24 = load ptr, ptr %5, align 8
  %25 = getelementptr inbounds nuw %struct.aeron_frame_info_t_stct, ptr %24, i32 0, i32 2
  %26 = getelementptr inbounds nuw %struct.aeron_frame_link_t, ptr %25, i32 0, i32 0
  store i32 %23, ptr %26, align 8
  %27 = load ptr, ptr %5, align 8
  %28 = getelementptr inbounds nuw %struct.aeron_frame_info_t_stct, ptr %27, i32 0, i32 0
  %29 = load i32, ptr %28, align 8
  %30 = load ptr, ptr %4, align 8
  %31 = getelementptr inbounds nuw %struct.aeron_transport_t_stct, ptr %30, i32 0, i32 2
  %32 = load ptr, ptr %31, align 8
  %33 = getelementptr inbounds nuw %struct.aeron_frame_info_t_stct, ptr %32, i32 0, i32 2
  %34 = getelementptr inbounds nuw %struct.aeron_frame_link_t, ptr %33, i32 0, i32 1
  store i32 %29, ptr %34, align 4
  br label %35

35:                                               ; preds = %18, %13
  %36 = load ptr, ptr %5, align 8
  %37 = getelementptr inbounds nuw %struct.aeron_frame_info_t_stct, ptr %36, i32 0, i32 2
  %38 = getelementptr inbounds nuw %struct.aeron_frame_link_t, ptr %37, i32 0, i32 1
  store i32 0, ptr %38, align 4
  %39 = load ptr, ptr %5, align 8
  %40 = load ptr, ptr %4, align 8
  %41 = getelementptr inbounds nuw %struct.aeron_transport_t_stct, ptr %40, i32 0, i32 2
  store ptr %39, ptr %41, align 8
  ret void
}

; Function Attrs: null_pointer_is_valid sspstrong uwtable
define internal void @aeron_stream_frame_add(ptr noundef %0, ptr noundef %1, i32 noundef %2) #0 {
  %4 = alloca ptr, align 8
  %5 = alloca ptr, align 8
  %6 = alloca i32, align 4
  store ptr %0, ptr %4, align 8
  store ptr %1, ptr %5, align 8
  store i32 %2, ptr %6, align 4
  %7 = load i32, ptr %6, align 4
  %8 = icmp ne i32 %7, 0
  br i1 %8, label %9, label %13

9:                                                ; preds = %3
  %10 = load i32, ptr %6, align 4
  %11 = load ptr, ptr %5, align 8
  %12 = getelementptr inbounds nuw %struct.aeron_frame_info_t_stct, ptr %11, i32 0, i32 10
  store i32 %10, ptr %12, align 8
  br label %13

13:                                               ; preds = %9, %3
  %14 = load ptr, ptr %4, align 8
  %15 = getelementptr inbounds nuw %struct.aeron_stream_t_stct, ptr %14, i32 0, i32 4
  %16 = load ptr, ptr %15, align 8
  %17 = icmp ne ptr %16, null
  br i1 %17, label %18, label %35

18:                                               ; preds = %13
  %19 = load ptr, ptr %4, align 8
  %20 = getelementptr inbounds nuw %struct.aeron_stream_t_stct, ptr %19, i32 0, i32 4
  %21 = load ptr, ptr %20, align 8
  %22 = getelementptr inbounds nuw %struct.aeron_frame_info_t_stct, ptr %21, i32 0, i32 0
  %23 = load i32, ptr %22, align 8
  %24 = load ptr, ptr %5, align 8
  %25 = getelementptr inbounds nuw %struct.aeron_frame_info_t_stct, ptr %24, i32 0, i32 3
  %26 = getelementptr inbounds nuw %struct.aeron_frame_link_t, ptr %25, i32 0, i32 0
  store i32 %23, ptr %26, align 8
  %27 = load ptr, ptr %5, align 8
  %28 = getelementptr inbounds nuw %struct.aeron_frame_info_t_stct, ptr %27, i32 0, i32 0
  %29 = load i32, ptr %28, align 8
  %30 = load ptr, ptr %4, align 8
  %31 = getelementptr inbounds nuw %struct.aeron_stream_t_stct, ptr %30, i32 0, i32 4
  %32 = load ptr, ptr %31, align 8
  %33 = getelementptr inbounds nuw %struct.aeron_frame_info_t_stct, ptr %32, i32 0, i32 3
  %34 = getelementptr inbounds nuw %struct.aeron_frame_link_t, ptr %33, i32 0, i32 1
  store i32 %29, ptr %34, align 4
  br label %35

35:                                               ; preds = %18, %13
  %36 = load ptr, ptr %5, align 8
  %37 = getelementptr inbounds nuw %struct.aeron_frame_info_t_stct, ptr %36, i32 0, i32 3
  %38 = getelementptr inbounds nuw %struct.aeron_frame_link_t, ptr %37, i32 0, i32 1
  store i32 0, ptr %38, align 4
  %39 = load ptr, ptr %5, align 8
  %40 = load ptr, ptr %4, align 8
  %41 = getelementptr inbounds nuw %struct.aeron_stream_t_stct, ptr %40, i32 0, i32 4
  store ptr %39, ptr %41, align 8
  %42 = load ptr, ptr %4, align 8
  %43 = getelementptr inbounds nuw %struct.aeron_stream_t_stct, ptr %42, i32 0, i32 0
  %44 = load ptr, ptr %43, align 8
  %45 = load ptr, ptr %5, align 8
  call void @aeron_transport_frame_add(ptr noundef %44, ptr noundef %45, i32 noundef 0)
  ret void
}

; Function Attrs: null_pointer_is_valid sspstrong uwtable
define internal void @aeron_term_frame_add(ptr noundef %0, ptr noundef %1, i32 noundef %2) #0 {
  %4 = alloca ptr, align 8
  %5 = alloca ptr, align 8
  %6 = alloca i32, align 4
  store ptr %0, ptr %4, align 8
  store ptr %1, ptr %5, align 8
  store i32 %2, ptr %6, align 4
  %7 = load i32, ptr %6, align 4
  %8 = icmp ne i32 %7, 0
  br i1 %8, label %9, label %13

9:                                                ; preds = %3
  %10 = load i32, ptr %6, align 4
  %11 = load ptr, ptr %5, align 8
  %12 = getelementptr inbounds nuw %struct.aeron_frame_info_t_stct, ptr %11, i32 0, i32 10
  store i32 %10, ptr %12, align 8
  br label %13

13:                                               ; preds = %9, %3
  %14 = load ptr, ptr %4, align 8
  %15 = getelementptr inbounds nuw %struct.aeron_term_t_stct, ptr %14, i32 0, i32 4
  %16 = load ptr, ptr %15, align 8
  %17 = icmp ne ptr %16, null
  br i1 %17, label %18, label %35

18:                                               ; preds = %13
  %19 = load ptr, ptr %4, align 8
  %20 = getelementptr inbounds nuw %struct.aeron_term_t_stct, ptr %19, i32 0, i32 4
  %21 = load ptr, ptr %20, align 8
  %22 = getelementptr inbounds nuw %struct.aeron_frame_info_t_stct, ptr %21, i32 0, i32 0
  %23 = load i32, ptr %22, align 8
  %24 = load ptr, ptr %5, align 8
  %25 = getelementptr inbounds nuw %struct.aeron_frame_info_t_stct, ptr %24, i32 0, i32 4
  %26 = getelementptr inbounds nuw %struct.aeron_frame_link_t, ptr %25, i32 0, i32 0
  store i32 %23, ptr %26, align 8
  %27 = load ptr, ptr %5, align 8
  %28 = getelementptr inbounds nuw %struct.aeron_frame_info_t_stct, ptr %27, i32 0, i32 0
  %29 = load i32, ptr %28, align 8
  %30 = load ptr, ptr %4, align 8
  %31 = getelementptr inbounds nuw %struct.aeron_term_t_stct, ptr %30, i32 0, i32 4
  %32 = load ptr, ptr %31, align 8
  %33 = getelementptr inbounds nuw %struct.aeron_frame_info_t_stct, ptr %32, i32 0, i32 4
  %34 = getelementptr inbounds nuw %struct.aeron_frame_link_t, ptr %33, i32 0, i32 1
  store i32 %29, ptr %34, align 4
  br label %35

35:                                               ; preds = %18, %13
  %36 = load ptr, ptr %5, align 8
  %37 = getelementptr inbounds nuw %struct.aeron_frame_info_t_stct, ptr %36, i32 0, i32 4
  %38 = getelementptr inbounds nuw %struct.aeron_frame_link_t, ptr %37, i32 0, i32 1
  store i32 0, ptr %38, align 4
  %39 = load ptr, ptr %5, align 8
  %40 = load ptr, ptr %4, align 8
  %41 = getelementptr inbounds nuw %struct.aeron_term_t_stct, ptr %40, i32 0, i32 4
  store ptr %39, ptr %41, align 8
  %42 = load ptr, ptr %4, align 8
  %43 = getelementptr inbounds nuw %struct.aeron_term_t_stct, ptr %42, i32 0, i32 0
  %44 = load ptr, ptr %43, align 8
  %45 = load ptr, ptr %5, align 8
  call void @aeron_stream_frame_add(ptr noundef %44, ptr noundef %45, i32 noundef 0)
  ret void
}