; Function Attrs: mustprogress nofree norecurse nosync nounwind null_pointer_is_valid sspstrong willreturn memory(readwrite, inaccessiblemem: none) uwtable
define internal fastcc void @aeron_term_frame_add(ptr noundef captures(none) %0, ptr noundef nonnull initializes((28, 32)) %1, i32 noundef range(i32 0, 3) %2) unnamed_addr #7 {
  %.not = icmp eq i32 %2, 0
  br i1 %.not, label %6, label %4

4:                                                ; preds = %3
  %5 = getelementptr inbounds nuw i8, ptr %1, i64 72
  store i32 %2, ptr %5, align 8
  br label %6

6:                                                ; preds = %4, %3
  %7 = getelementptr inbounds nuw i8, ptr %0, i64 32
  %8 = load ptr, ptr %7, align 8
  %.not13 = icmp eq ptr %8, null
  br i1 %.not13, label %15, label %9

9:                                                ; preds = %6
  %10 = load i32, ptr %8, align 8
  %11 = getelementptr inbounds nuw i8, ptr %1, i64 24
  store i32 %10, ptr %11, align 8
  %12 = load i32, ptr %1, align 8
  %13 = load ptr, ptr %7, align 8
  %14 = getelementptr inbounds nuw i8, ptr %13, i64 28
  store i32 %12, ptr %14, align 4
  br label %15

15:                                               ; preds = %9, %6
  %16 = getelementptr inbounds nuw i8, ptr %1, i64 28
  store i32 0, ptr %16, align 4
  store ptr %1, ptr %7, align 8
  %17 = load ptr, ptr %0, align 8
  %18 = getelementptr inbounds nuw i8, ptr %17, i64 32
  %19 = load ptr, ptr %18, align 8
  %.not.i = icmp eq ptr %19, null
  br i1 %.not.i, label %26, label %20

20:                                               ; preds = %15
  %21 = load i32, ptr %19, align 8
  %22 = getelementptr inbounds nuw i8, ptr %1, i64 16
  store i32 %21, ptr %22, align 8
  %23 = load i32, ptr %1, align 8
  %24 = load ptr, ptr %18, align 8
  %25 = getelementptr inbounds nuw i8, ptr %24, i64 20
  store i32 %23, ptr %25, align 4
  br label %26

26:                                               ; preds = %20, %15
  %27 = getelementptr inbounds nuw i8, ptr %1, i64 20
  store i32 0, ptr %27, align 4
  store ptr %1, ptr %18, align 8
  %28 = load ptr, ptr %17, align 8
  %29 = getelementptr inbounds nuw i8, ptr %28, i64 16
  %30 = load ptr, ptr %29, align 8
  %.not.i.i = icmp eq ptr %30, null
  br i1 %.not.i.i, label %aeron_stream_frame_add.exit, label %31

31:                                               ; preds = %26
  %32 = load i32, ptr %30, align 8
  %33 = getelementptr inbounds nuw i8, ptr %1, i64 8
  store i32 %32, ptr %33, align 8
  %34 = load i32, ptr %1, align 8
  %35 = load ptr, ptr %29, align 8
  %36 = getelementptr inbounds nuw i8, ptr %35, i64 12
  store i32 %34, ptr %36, align 4
  br label %aeron_stream_frame_add.exit

aeron_stream_frame_add.exit:                      ; preds = %26, %31
  %37 = getelementptr inbounds nuw i8, ptr %1, i64 12
  store i32 0, ptr %37, align 4
  store ptr %1, ptr %29, align 8
  ret void
}